; Function Attrs: nounwind uwtable
define hidden void @zenderror(ptr noundef %0) local_unnamed_addr #0 {
  store i8 0, ptr getelementptr inbounds (%struct._zend_compiler_globals, ptr @compiler_globals, i64 0, i32 8), align 8
  %2 = load ptr, ptr getelementptr inbounds (%struct._zend_executor_globals, ptr @executor_globals, i64 0, i32 50), align 8
  %.not = icmp eq ptr %2, null
  br i1 %.not, label %3, label %6

3:                                                ; preds = %1
  %4 = load ptr, ptr @zend_ce_parse_error, align 8
  %5 = tail call ptr @zend_throw_exception(ptr noundef %4, ptr noundef %0, i64 noundef 0) #30
  br label %6

6:                                                ; preds = %1, %3
  ret void
}